Certificate:
    Data:
        Version: 3 (0x2)
        Serial Number: 4096 (0x1000)
        Signature Algorithm: sha256WithRSAEncryption
        Issuer: C=AU, ST=Some-State, O=Internet Widgits Pty Ltd, CN=corei99
        Validity
            Not Before: Apr 19 15:40:27 2021 GMT
            Not After : Apr 19 15:40:27 2022 GMT
        Subject: C=AU, ST=Some-State, O=Internet Widgits Pty Ltd, CN=corei99.com
        Subject Public Key Info:
            Public Key Algorithm: rsaEncryption
                RSA Public-Key: (2048 bit)
                Modulus:
                    00:9e:d8:88:da:9f:08:2f:9f:6d:cd:d8:74:4d:8d:
                    8a:cf:f7:4e:25:de:82:ec:73:6b:f4:2c:5b:8c:5a:
                    fc:e2:62:c0:99:21:53:d9:ff:64:39:6c:f3:96:a4:
                    dd:e0:93:72:de:11:8b:32:aa:ed:92:51:ea:1f:49:
                    ec:c1:20:87:d4:b2:d6:db:f2:e6:33:9a:28:4e:fa:
                    2f:5c:dc:3d:e3:59:dc:e3:8a:cc:b4:63:9e:27:c4:
                    af:cd:ca:11:41:8d:53:e9:1a:38:47:1b:5e:c9:a4:
                    4b:3f:55:33:3e:9e:e8:8d:c4:d5:4a:c7:94:43:2f:
                    ec:fd:4e:83:bd:18:07:d9:58:5d:d4:fc:31:49:54:
                    72:52:73:76:26:79:47:fe:3f:70:a8:b5:cc:df:22:
                    05:6b:04:2b:ee:49:37:00:eb:92:28:5d:4e:07:51:
                    fd:28:a1:f9:2f:1d:6d:99:c2:d0:37:ef:4c:7a:a0:
                    1a:e6:fb:e7:f7:5d:4c:e7:9b:e8:25:61:af:2d:88:
                    3e:e3:38:cd:35:a2:2e:36:59:78:f2:aa:d6:a2:7d:
                    f4:d7:31:c4:bc:55:06:a4:20:1c:74:39:af:ef:3f:
                    d7:0e:00:f7:aa:85:dc:e8:d3:67:5d:35:cb:94:b2:
                    56:1d:22:82:8b:23:a3:7b:fc:13:96:d7:fd:93:51:
                    4e:f3
                Exponent: 65537 (0x10001)
        X509v3 extensions:
            X509v3 Basic Constraints: 
                CA:FALSE
            Netscape Comment: 
                OpenSSL Generated Certificate
            X509v3 Subject Key Identifier: 
                C7:15:9D:76:8D:3F:BA:58:19:B0:14:79:D4:C1:44:45:7A:46:30:51
            X509v3 Authority Key Identifier: 
                keyid:DB:C2:6D:DA:12:8D:99:F8:77:42:49:C5:B4:05:77:AE:8E:37:79:50

    Signature Algorithm: sha256WithRSAEncryption
         08:82:37:34:3f:74:2e:99:d6:04:87:48:7b:1e:48:d3:10:ad:
         04:88:85:10:a2:3c:a9:c5:71:df:5e:f3:fd:3f:6d:e2:1b:e8:
         bf:98:ad:3e:58:26:69:95:7b:a9:be:1a:57:86:74:53:32:a3:
         0d:87:b4:07:62:13:db:e1:8d:aa:7f:7c:5a:12:e2:8f:43:95:
         04:e3:df:ed:fb:95:ab:4d:6c:3f:3b:96:f9:92:f1:9d:74:e0:
         23:dd:0a:9e:0b:fa:53:33:20:33:b8:03:82:24:5e:43:dd:5e:
         f7:2e:48:40:ac:a3:5f:52:d7:b3:65:79:90:07:1b:9c:ef:35:
         56:03:b2:59:36:43:3d:c8:7b:3e:d7:84:19:14:e8:a2:ee:0d:
         88:05:bd:e8:60:1f:e5:43:87:58:fd:b8:41:f5:db:27:30:80:
         9c:1e:48:db:d4:de:28:57:6a:fe:d1:24:96:bc:c4:42:8f:12:
         b4:4f:54:bc:2c:c9:24:ef:e5:70:0b:db:f9:37:3d:d2:91:b0:
         b9:c7:da:fc:52:20:e3:c4:11:e9:de:d8:b0:e7:79:20:ed:e6:
         83:5e:f4:98:b4:ff:1d:a4:b0:d7:e9:87:86:a8:70:23:34:b9:
         d3:6a:5d:6d:ad:46:2c:05:e6:ab:58:2a:f2:59:2c:f3:46:e0:
         22:96:63:ab
-----BEGIN CERTIFICATE-----
MIIDqTCCApGgAwIBAgICEAAwDQYJKoZIhvcNAQELBQAwVzELMAkGA1UEBhMCQVUx
EzARBgNVBAgMClNvbWUtU3RhdGUxITAfBgNVBAoMGEludGVybmV0IFdpZGdpdHMg
UHR5IEx0ZDEQMA4GA1UEAwwHY29yZWk5OTAeFw0yMTA0MTkxNTQwMjdaFw0yMjA0
MTkxNTQwMjdaMFsxCzAJBgNVBAYTAkFVMRMwEQYDVQQIDApTb21lLVN0YXRlMSEw
HwYDVQQKDBhJbnRlcm5ldCBXaWRnaXRzIFB0eSBMdGQxFDASBgNVBAMMC2NvcmVp
OTkuY29tMIIBIjANBgkqhkiG9w0BAQEFAAOCAQ8AMIIBCgKCAQEAntiI2p8IL59t
zdh0TY2Kz/dOJd6C7HNr9CxbjFr84mLAmSFT2f9kOWzzlqTd4JNy3hGLMqrtklHq
H0nswSCH1LLW2/LmM5ooTvovXNw941nc44rMtGOeJ8SvzcoRQY1T6Ro4RxteyaRL
P1UzPp7ojcTVSseUQy/s/U6DvRgH2Vhd1PwxSVRyUnN2JnlH/j9wqLXM3yIFawQr
7kk3AOuSKF1OB1H9KKH5Lx1tmcLQN+9MeqAa5vvn911M55voJWGvLYg+4zjNNaIu
Nll48qrWon301zHEvFUGpCAcdDmv7z/XDgD3qoXc6NNnXTXLlLJWHSKCiyOje/wT
ltf9k1FO8wIDAQABo3sweTAJBgNVHRMEAjAAMCwGCWCGSAGG+EIBDQQfFh1PcGVu
U1NMIEdlbmVyYXRlZCBDZXJ0aWZpY2F0ZTAdBgNVHQ4EFgQUxxWddo0/ulgZsBR5
1MFERXpGMFEwHwYDVR0jBBgwFoAU28Jt2hKNmfh3QknFtAV3ro43eVAwDQYJKoZI
hvcNAQELBQADggEBAAiCNzQ/dC6Z1gSHSHseSNMQrQSIhRCiPKnFcd9e8/0/beIb
6L+YrT5YJmmVe6m+GleGdFMyow2HtAdiE9vhjap/fFoS4o9DlQTj3+37latNbD87
lvmS8Z104CPdCp4L+lMzIDO4A4IkXkPdXvcuSECso19S17NleZAHG5zvNVYDslk2
Qz3Iez7XhBkU6KLuDYgFvehgH+VDh1j9uEH12ycwgJweSNvU3ihXav7RJJa8xEKP
ErRPVLwsySTv5XAL2/k3PdKRsLnH2vxSIOPEEene2LDneSDt5oNe9Ji0/x2ksNfp
h4aocCM0udNqXW2tRiwF5qtYKvJZLPNG4CKWY6s=
-----END CERTIFICATE-----
